target datalayout = "e-m:e-p270:32:32-p271:32:32-p272:64:64-i64:64-i128:128-f80:128-n8:16:32:64-S128"
target triple = "x86_64-pc-linux-gnu"

@_Py_ctype_table = external constant [256 x i32], align 16

; Function Attrs: nounwind uwtable
define dso_local i64 @PyOS_strtol(ptr noundef %0, ptr noundef %1, i32 noundef %2) #0 {
  %4 = alloca ptr, align 8
  %5 = alloca ptr, align 8
  %6 = alloca i32, align 4
  %7 = alloca i64, align 8
  %8 = alloca i64, align 8
  %9 = alloca i8, align 1
  store ptr %0, ptr %4, align 8, !tbaa !4
  store ptr %1, ptr %5, align 8, !tbaa !9
  store i32 %2, ptr %6, align 4, !tbaa !11
  call void @llvm.lifetime.start.p0(i64 8, ptr %7) #3
  call void @llvm.lifetime.start.p0(i64 8, ptr %8) #3
  call void @llvm.lifetime.start.p0(i64 1, ptr %9) #3
  br label %10

10:                                               ; preds = %28, %3
  %11 = load ptr, ptr %4, align 8, !tbaa !4
  %12 = load i8, ptr %11, align 1, !tbaa !15
  %13 = sext i8 %12 to i32
  %14 = icmp ne i32 %13, 0
  br i1 %14, label %15, label %26

15:                                               ; preds = %10
  %16 = load ptr, ptr %4, align 8, !tbaa !4
  %17 = load i8, ptr %16, align 1, !tbaa !15
  %18 = sext i8 %17 to i32
  %19 = and i32 %18, 255
  %20 = trunc i32 %19 to i8
  %21 = zext i8 %20 to i64
  %22 = getelementptr [256 x i32], ptr @_Py_ctype_table, i64 0, i64 %21
  %23 = load i32, ptr %22, align 4, !tbaa !11
  %24 = and i32 %23, 8
  %25 = icmp ne i32 %24, 0
  br label %26

26:                                               ; preds = %15, %10
  %27 = phi i1 [ false, %10 ], [ %25, %15 ]
  br i1 %27, label %28, label %31

28:                                               ; preds = %26
  %29 = load ptr, ptr %4, align 8, !tbaa !4
  %30 = getelementptr i8, ptr %29, i32 1
  store ptr %30, ptr %4, align 8, !tbaa !4
  br label %10, !llvm.loop !23

31:                                               ; preds = %26
  %32 = load ptr, ptr %4, align 8, !tbaa !4
  %33 = load i8, ptr %32, align 1, !tbaa !15
  store i8 %33, ptr %9, align 1, !tbaa !15
  %34 = load i8, ptr %9, align 1, !tbaa !15
  %35 = sext i8 %34 to i32
  %36 = icmp eq i32 %35, 43
  br i1 %36, label %41, label %37

37:                                               ; preds = %31
  %38 = load i8, ptr %9, align 1, !tbaa !15
  %39 = sext i8 %38 to i32
  %40 = icmp eq i32 %39, 45
  br i1 %40, label %41, label %44

41:                                               ; preds = %37, %31
  %42 = load ptr, ptr %4, align 8, !tbaa !4
  %43 = getelementptr i8, ptr %42, i32 1
  store ptr %43, ptr %4, align 8, !tbaa !4
  br label %44

44:                                               ; preds = %41, %37
  %45 = load ptr, ptr %4, align 8, !tbaa !4
  %46 = load ptr, ptr %5, align 8, !tbaa !9
  %47 = load i32, ptr %6, align 4, !tbaa !11
  %48 = call i64 @PyOS_strtoul(ptr noundef %45, ptr noundef %46, i32 noundef %47)
  store i64 %48, ptr %8, align 8, !tbaa !13
  %49 = load i64, ptr %8, align 8, !tbaa !13
  %50 = icmp ule i64 %49, 9223372036854775807
  br i1 %50, label %51, label %60

51:                                               ; preds = %44
  %52 = load i64, ptr %8, align 8, !tbaa !13
  store i64 %52, ptr %7, align 8, !tbaa !13
  %53 = load i8, ptr %9, align 1, !tbaa !15
  %54 = sext i8 %53 to i32
  %55 = icmp eq i32 %54, 45
  br i1 %55, label %56, label %59

56:                                               ; preds = %51
  %57 = load i64, ptr %7, align 8, !tbaa !13
  %58 = sub i64 0, %57
  store i64 %58, ptr %7, align 8, !tbaa !13
  br label %59

59:                                               ; preds = %56, %51
  br label %71

60:                                               ; preds = %44
  %61 = load i8, ptr %9, align 1, !tbaa !15
  %62 = sext i8 %61 to i32
  %63 = icmp eq i32 %62, 45
  br i1 %63, label %64, label %68

64:                                               ; preds = %60
  %65 = load i64, ptr %8, align 8, !tbaa !13
  %66 = icmp eq i64 %65, -9223372036854775808
  br i1 %66, label %67, label %68

67:                                               ; preds = %64
  store i64 -9223372036854775808, ptr %7, align 8, !tbaa !13
  br label %70

68:                                               ; preds = %64, %60
  %69 = call ptr @__errno_location() #4
  store i32 34, ptr %69, align 4, !tbaa !11
  store i64 9223372036854775807, ptr %7, align 8, !tbaa !13
  br label %70

70:                                               ; preds = %68, %67
  br label %71

71:                                               ; preds = %70, %59
  %72 = load i64, ptr %7, align 8, !tbaa !13
  call void @llvm.lifetime.end.p0(i64 1, ptr %9) #3
  call void @llvm.lifetime.end.p0(i64 8, ptr %8) #3
  call void @llvm.lifetime.end.p0(i64 8, ptr %7) #3
  ret i64 %72
}