; Function Attrs: nofree nosync nounwind memory(readwrite, inaccessiblemem: none) uwtable
define dso_local i64 @PyOS_strtol(ptr noundef %0, ptr noundef %1, i32 noundef %2) local_unnamed_addr #0 {
  %4 = load i8, ptr %0, align 1, !tbaa !4
  %.not27 = icmp eq i8 %4, 0
  br i1 %.not27, label %.critedge.thread, label %.lr.ph

.lr.ph:                                           ; preds = %3, %10
  %5 = phi i8 [ %12, %10 ], [ %4, %3 ]
  %.028 = phi ptr [ %11, %10 ], [ %0, %3 ]
  %6 = zext i8 %5 to i64
  %7 = getelementptr [256 x i32], ptr @_Py_ctype_table, i64 0, i64 %6
  %8 = load i32, ptr %7, align 4, !tbaa !7
  %9 = and i32 %8, 8
  %.not24 = icmp eq i32 %9, 0
  br i1 %.not24, label %.critedge, label %10

10:                                               ; preds = %.lr.ph
  %11 = getelementptr i8, ptr %.028, i64 1
  %12 = load i8, ptr %11, align 1, !tbaa !4
  %.not = icmp eq i8 %12, 0
  br i1 %.not, label %.critedge.thread, label %.lr.ph, !llvm.loop !21

.critedge:                                        ; preds = %.lr.ph
  %13 = icmp eq i8 %5, 45
  switch i8 %5, label %.critedge.thread [
    i8 45, label %14
    i8 43, label %14
  ]

14:                                               ; preds = %.critedge, %.critedge
  %15 = getelementptr i8, ptr %.028, i64 1
  br label %.critedge.thread

.critedge.thread:                                 ; preds = %10, %3, %.critedge, %14
  %16 = phi i1 [ %13, %14 ], [ %13, %.critedge ], [ false, %3 ], [ false, %10 ]
  %.1 = phi ptr [ %15, %14 ], [ %.028, %.critedge ], [ %0, %3 ], [ %11, %10 ]
  %17 = tail call i64 @PyOS_strtoul(ptr noundef %.1, ptr noundef %1, i32 noundef %2)
  %18 = icmp sgt i64 %17, -1
  br i1 %18, label %19, label %21

19:                                               ; preds = %.critedge.thread
  %20 = sub nsw i64 0, %17
  %spec.select = select i1 %16, i64 %20, i64 %17
  br label %25

21:                                               ; preds = %.critedge.thread
  %22 = icmp eq i64 %17, -9223372036854775808
  %or.cond4 = and i1 %16, %22
  br i1 %or.cond4, label %25, label %23

23:                                               ; preds = %21
  %24 = tail call ptr @__errno_location() #3
  store i32 34, ptr %24, align 4, !tbaa !7
  br label %25

25:                                               ; preds = %19, %21, %23
  %.020 = phi i64 [ 9223372036854775807, %23 ], [ %spec.select, %19 ], [ -9223372036854775808, %21 ]
  ret i64 %.020
}